gpasm-1.5.2 #1325 (Feb 10 2026) dist/firmware   02/11/26  23:18:33          PAGE  1


LOC    OBJECT CODE    LINE  SOURCE TEXT
  VALUE

                      00001         LIST P=18F45K50
                      00002         #include <p18f45k50.inc>
                      00001         LIST
                      00002 
                      00003 ;==========================================================================
                      00004 ; Build date : Oct 21 2015
                      00005 ;  MPASM PIC18F45K50 processor include
                      00006 ; 
                      00007 ;  (c) Copyright 1999-2015 Microchip Technology, All rights reserved
                      00008 ;==========================================================================
                      00009 
                      02340         LIST
  00000060            00003 _stack_base EQU 0x060
  00000074            00004 delay_ms.count EQU _stack_base + 0x014
  00000075            00005 delay_ms.ms EQU _stack_base + 0x015
  00000061            00006 main.mode EQU _stack_base + 0x001
  0000006E            00007 soft_pwm.duration EQU _stack_base + 0x00E
  0000006F            00008 soft_pwm.duty_cycle EQU _stack_base + 0x00F
  00000076            00009 tmp.0 EQU _stack_base + 0x016
  00000077            00010 tmp.1 EQU _stack_base + 0x017
  00000070            00011 tmp.10 EQU _stack_base + 0x010
  00000071            00012 tmp.12 EQU _stack_base + 0x011
  00000064            00013 tmp.14 EQU _stack_base + 0x004
  00000065            00014 tmp.15 EQU _stack_base + 0x005
  00000066            00015 tmp.17 EQU _stack_base + 0x006
  00000067            00016 tmp.18 EQU _stack_base + 0x007
  00000068            00017 tmp.19 EQU _stack_base + 0x008
  00000069            00018 tmp.20 EQU _stack_base + 0x009
  0000006A            00019 tmp.21 EQU _stack_base + 0x00A
  0000006B            00020 tmp.22 EQU _stack_base + 0x00B
  0000006C            00021 tmp.23 EQU _stack_base + 0x00C
  0000006E            00022 tmp.4 EQU _stack_base + 0x00E
  0000006F            00023 tmp.5 EQU _stack_base + 0x00F
  00000070            00024 tmp.6 EQU _stack_base + 0x010
  00000071            00025 tmp.7 EQU _stack_base + 0x011
  00000072            00026 tmp.8 EQU _stack_base + 0x012
  00000073            00027 tmp.9 EQU _stack_base + 0x013
000000                00028     ORG 0x0000
000000 EF8D F000      00029         GOTO    main
000004                00030 init_hardware:
000004 8093           00031         BSF     0xF93, 0, ACCESS
000006 9494           00032         BCF     0xF94, 2, ACCESS
000008 948B           00033         BCF     0xF8B, 2, ACCESS
00000A 0012           00034         RETURN
00000C                00035 delay_ms:
00000C                00036 L.0:
00000C 0100           00037         MOVLB   0
00000E 5175           00038         MOVF    delay_ms.ms, W, BANKED
000010 0E00           00039         MOVLW   0x00
000012 5D75           00040         SUBWF   delay_ms.ms, W, BANKED
000014 6AE8           00041         CLRF    WREG, ACCESS
000016 A0D8           00042         BTFSS   STATUS, C, ACCESS
000018 D002           00043         BRA     comp_false_0
gpasm-1.5.2 #1325 (Feb 10 2026) dist/firmware   02/11/26  23:18:33          PAGE  2


LOC    OBJECT CODE    LINE  SOURCE TEXT
  VALUE

00001A A4D8           00044         BTFSS   STATUS, Z, ACCESS
00001C 0E01           00045         MOVLW   1
00001E                00046 comp_false_0:
00001E 0100           00047         MOVLB   0
000020 6F76           00048         MOVWF   tmp.0, BANKED
000022 0BFF           00049         ANDLW   0xFF
000024 E018           00050         BZ      L.1
000026 0E64           00051         MOVLW   0x64
000028 6F74           00052         MOVWF   delay_ms.count, BANKED
00002A                00053 L.2:
00002A 0100           00054         MOVLB   0
00002C 5174           00055         MOVF    delay_ms.count, W, BANKED
00002E 0E00           00056         MOVLW   0x00
000030 5D74           00057         SUBWF   delay_ms.count, W, BANKED
000032 6AE8           00058         CLRF    WREG, ACCESS
000034 A0D8           00059         BTFSS   STATUS, C, ACCESS
000036 D002           00060         BRA     comp_false_2
000038 A4D8           00061         BTFSS   STATUS, Z, ACCESS
00003A 0E01           00062         MOVLW   1
00003C                00063 comp_false_2:
00003C 0100           00064         MOVLB   0
00003E 6F77           00065         MOVWF   tmp.1, BANKED
000040 0BFF           00066         ANDLW   0xFF
000042 E004           00067         BZ      L.3
000044 5174           00068         MOVF    delay_ms.count, W, BANKED
000046 0FFF           00069         ADDLW   (0x100 - (0x01)) & 0xFF
000048 6F74           00070         MOVWF   delay_ms.count, BANKED
00004A D7EF           00071         BRA     L.2
00004C                00072 L.3:
00004C 0100           00073         MOVLB   0
00004E 5175           00074         MOVF    delay_ms.ms, W, BANKED
000050 0FFF           00075         ADDLW   (0x100 - (0x01)) & 0xFF
000052 6F75           00076         MOVWF   delay_ms.ms, BANKED
000054 D7DB           00077         BRA     L.0
000056                00078 L.1:
000056 0012           00079         RETURN
000058                00080 is_button_pressed:
000058 6AE8           00081         CLRF    WREG, ACCESS
00005A B081           00082         BTFSC   0xF81, 0, ACCESS
00005C 0E01           00083         MOVLW   1
00005E 0100           00084         MOVLB   0
000060 6F6E           00085         MOVWF   tmp.4, BANKED
000062 0E00           00086         MOVLW   0x00
000064 5D6E           00087         SUBWF   tmp.4, W, BANKED
000066 6AE8           00088         CLRF    WREG, ACCESS
000068 B4D8           00089         BTFSC   STATUS, Z, ACCESS
00006A 0E01           00090         MOVLW   1
00006C                00091 comp_false_4:
00006C 0100           00092         MOVLB   0
00006E 6F6F           00093         MOVWF   tmp.5, BANKED
000070 0BFF           00094         ANDLW   0xFF
000072 E015           00095         BZ      L.4
000074 0E0A           00096         MOVLW   0x0A
gpasm-1.5.2 #1325 (Feb 10 2026) dist/firmware   02/11/26  23:18:33          PAGE  3


LOC    OBJECT CODE    LINE  SOURCE TEXT
  VALUE

000076 6F75           00097         MOVWF   delay_ms.ms, BANKED
000078 EC06 F000      00098         CALL    delay_ms
00007C 6AE8           00099         CLRF    WREG, ACCESS
00007E B081           00100         BTFSC   0xF81, 0, ACCESS
000080 0E01           00101         MOVLW   1
Message[1302]: RAM Bank undefined in this chunk of code. Ensure that bank bits are correct. Assuming bank 0 from now on.
000082 6F70           00102         MOVWF   tmp.6, BANKED
000084 0E00           00103         MOVLW   0x00
000086 5D70           00104         SUBWF   tmp.6, W, BANKED
000088 6AE8           00105         CLRF    WREG, ACCESS
00008A B4D8           00106         BTFSC   STATUS, Z, ACCESS
00008C 0E01           00107         MOVLW   1
00008E                00108 comp_false_6:
00008E 0100           00109         MOVLB   0
000090 6F71           00110         MOVWF   tmp.7, BANKED
000092 0BFF           00111         ANDLW   0xFF
000094 E003           00112         BZ      L.5
000096 0E01           00113         MOVLW   0x01
000098 0012           00114         RETURN
00009A D000           00115         BRA     L.5
00009C                00116 L.5:
00009C D000           00117         BRA     L.4
00009E                00118 L.4:
00009E 0E00           00119         MOVLW   0x00
0000A0 0012           00120         RETURN
0000A2                00121 soft_pwm:
0000A2                00122 L.6:
0000A2 0100           00123         MOVLB   0
0000A4 516E           00124         MOVF    soft_pwm.duration, W, BANKED
0000A6 0E00           00125         MOVLW   0x00
0000A8 5D6E           00126         SUBWF   soft_pwm.duration, W, BANKED
0000AA 6AE8           00127         CLRF    WREG, ACCESS
0000AC A0D8           00128         BTFSS   STATUS, C, ACCESS
0000AE D002           00129         BRA     comp_false_8
0000B0 A4D8           00130         BTFSS   STATUS, Z, ACCESS
0000B2 0E01           00131         MOVLW   1
0000B4                00132 comp_false_8:
0000B4 0100           00133         MOVLB   0
0000B6 6F72           00134         MOVWF   tmp.8, BANKED
0000B8 0BFF           00135         ANDLW   0xFF
0000BA E02E           00136         BZ      L.7
0000BC 516F           00137         MOVF    soft_pwm.duty_cycle, W, BANKED
0000BE 0E00           00138         MOVLW   0x00
0000C0 5D6F           00139         SUBWF   soft_pwm.duty_cycle, W, BANKED
0000C2 6AE8           00140         CLRF    WREG, ACCESS
0000C4 A0D8           00141         BTFSS   STATUS, C, ACCESS
0000C6 D002           00142         BRA     comp_false_10
0000C8 A4D8           00143         BTFSS   STATUS, Z, ACCESS
0000CA 0E01           00144         MOVLW   1
0000CC                00145 comp_false_10:
0000CC 0100           00146         MOVLB   0
0000CE 6F73           00147         MOVWF   tmp.9, BANKED
0000D0 0BFF           00148         ANDLW   0xFF
gpasm-1.5.2 #1325 (Feb 10 2026) dist/firmware   02/11/26  23:18:33          PAGE  4


LOC    OBJECT CODE    LINE  SOURCE TEXT
  VALUE

0000D2 E006           00149         BZ      L.8
0000D4 848B           00150         BSF     0xF8B, 2, ACCESS
0000D6 C06F F075      00151         MOVFF   soft_pwm.duty_cycle, delay_ms.ms
0000DA EC06 F000      00152         CALL    delay_ms
0000DE D000           00153         BRA     L.8
0000E0                00154 L.8:
0000E0 0100           00155         MOVLB   0
0000E2 516F           00156         MOVF    soft_pwm.duty_cycle, W, BANKED
0000E4 0E0A           00157         MOVLW   0x0A
0000E6 5D6F           00158         SUBWF   soft_pwm.duty_cycle, W, BANKED
0000E8 6AE8           00159         CLRF    WREG, ACCESS
0000EA A0D8           00160         BTFSS   STATUS, C, ACCESS
0000EC 0E01           00161         MOVLW   1
0000EE                00162 comp_false_12:
0000EE 0100           00163         MOVLB   0
0000F0 6F70           00164         MOVWF   tmp.10, BANKED
0000F2 0BFF           00165         ANDLW   0xFF
0000F4 E00C           00166         BZ      L.9
0000F6 948B           00167         BCF     0xF8B, 2, ACCESS
0000F8 0E0A           00168         MOVLW   0x0A
0000FA 516F           00169         MOVF    soft_pwm.duty_cycle, W, BANKED
0000FC 5C0A           00170         SUBWF   0x0A, W, ACCESS
0000FE 6F75           00171         MOVWF   delay_ms.ms, BANKED
000100 0E0A           00172         MOVLW   0x0A
000102 516F           00173         MOVF    soft_pwm.duty_cycle, W, BANKED
000104 5C0A           00174         SUBWF   0x0A, W, ACCESS
000106 6F71           00175         MOVWF   tmp.12, BANKED
000108 EC06 F000      00176         CALL    delay_ms
00010C D000           00177         BRA     L.9
00010E                00178 L.9:
00010E 0100           00179         MOVLB   0
000110 516E           00180         MOVF    soft_pwm.duration, W, BANKED
000112 0FFF           00181         ADDLW   (0x100 - (0x01)) & 0xFF
000114 6F6E           00182         MOVWF   soft_pwm.duration, BANKED
000116 D7C5           00183         BRA     L.6
000118                00184 L.7:
000118 0012           00185         RETURN
00011A                00186 main:
00011A EC02 F000      00187         CALL    init_hardware
00011E 0E00           00188         MOVLW   0x00
000120 0100           00189         MOVLB   0
000122 6F61           00190         MOVWF   main.mode, BANKED
000124                00191 L.10:
000124 0E01           00192         MOVLW   0x01
000126 0BFF           00193         ANDLW   0xFF
000128 E07A           00194         BZ      L.11
00012A EC2C F000      00195         CALL    is_button_pressed
00012E 0100           00196         MOVLB   0
000130 6F64           00197         MOVWF   tmp.14, BANKED
000132 0E01           00198         MOVLW   0x01
000134 5D64           00199         SUBWF   tmp.14, W, BANKED
000136 6AE8           00200         CLRF    WREG, ACCESS
000138 B4D8           00201         BTFSC   STATUS, Z, ACCESS
gpasm-1.5.2 #1325 (Feb 10 2026) dist/firmware   02/11/26  23:18:33          PAGE  5


LOC    OBJECT CODE    LINE  SOURCE TEXT
  VALUE

00013A 0E01           00202         MOVLW   1
00013C                00203 comp_false_14:
00013C 0100           00204         MOVLB   0
00013E 6F65           00205         MOVWF   tmp.15, BANKED
000140 0BFF           00206         ANDLW   0xFF
000142 E025           00207         BZ      L.12
000144 5161           00208         MOVF    main.mode, W, BANKED
000146 0F01           00209         ADDLW   0x01
000148 6F61           00210         MOVWF   main.mode, BANKED
00014A 0E03           00211         MOVLW   0x03
00014C 5D61           00212         SUBWF   main.mode, W, BANKED
00014E 6AE8           00213         CLRF    WREG, ACCESS
000150 A0D8           00214         BTFSS   STATUS, C, ACCESS
000152 D002           00215         BRA     comp_false_16
000154 A4D8           00216         BTFSS   STATUS, Z, ACCESS
000156 0E01           00217         MOVLW   1
000158                00218 comp_false_16:
000158 0100           00219         MOVLB   0
00015A 6F66           00220         MOVWF   tmp.17, BANKED
00015C 0BFF           00221         ANDLW   0xFF
00015E E003           00222         BZ      L.13
000160 0E00           00223         MOVLW   0x00
000162 6F61           00224         MOVWF   main.mode, BANKED
000164 D000           00225         BRA     L.13
000166                00226 L.13:
000166                00227 L.14:
000166 6AE8           00228         CLRF    WREG, ACCESS
000168 B081           00229         BTFSC   0xF81, 0, ACCESS
00016A 0E01           00230         MOVLW   1
00016C 0100           00231         MOVLB   0
00016E 6F67           00232         MOVWF   tmp.18, BANKED
000170 0E00           00233         MOVLW   0x00
000172 5D67           00234         SUBWF   tmp.18, W, BANKED
000174 6AE8           00235         CLRF    WREG, ACCESS
000176 B4D8           00236         BTFSC   STATUS, Z, ACCESS
000178 0E01           00237         MOVLW   1
00017A                00238 comp_false_18:
00017A 0100           00239         MOVLB   0
00017C 6F68           00240         MOVWF   tmp.19, BANKED
00017E 0BFF           00241         ANDLW   0xFF
000180 E005           00242         BZ      L.15
000182 0E0A           00243         MOVLW   0x0A
000184 6F75           00244         MOVWF   delay_ms.ms, BANKED
000186 EC06 F000      00245         CALL    delay_ms
00018A D7ED           00246         BRA     L.14
00018C                00247 L.15:
00018C D000           00248         BRA     L.12
00018E                00249 L.12:
00018E 0100           00250         MOVLB   0
000190 5161           00251         MOVF    main.mode, W, BANKED
000192 0E00           00252         MOVLW   0x00
000194 5D61           00253         SUBWF   main.mode, W, BANKED
000196 6AE8           00254         CLRF    WREG, ACCESS
gpasm-1.5.2 #1325 (Feb 10 2026) dist/firmware   02/11/26  23:18:33          PAGE  6


LOC    OBJECT CODE    LINE  SOURCE TEXT
  VALUE

000198 B4D8           00255         BTFSC   STATUS, Z, ACCESS
00019A 0E01           00256         MOVLW   1
00019C                00257 comp_false_20:
00019C 0100           00258         MOVLB   0
00019E 6F69           00259         MOVWF   tmp.20, BANKED
0001A0 0BFF           00260         ANDLW   0xFF
0001A2 E002           00261         BZ      L.17
0001A4 948B           00262         BCF     0xF8B, 2, ACCESS
0001A6 D03A           00263         BRA     L.16
0001A8                00264 L.17:
0001A8 0100           00265         MOVLB   0
0001AA 5161           00266         MOVF    main.mode, W, BANKED
0001AC 0E01           00267         MOVLW   0x01
0001AE 5D61           00268         SUBWF   main.mode, W, BANKED
0001B0 6AE8           00269         CLRF    WREG, ACCESS
0001B2 B4D8           00270         BTFSC   STATUS, Z, ACCESS
0001B4 0E01           00271         MOVLW   1
0001B6                00272 comp_false_22:
0001B6 0100           00273         MOVLB   0
0001B8 6F6A           00274         MOVWF   tmp.21, BANKED
0001BA 0BFF           00275         ANDLW   0xFF
0001BC E007           00276         BZ      L.18
0001BE 0E03           00277         MOVLW   0x03
0001C0 6F6F           00278         MOVWF   soft_pwm.duty_cycle, BANKED
0001C2 0E05           00279         MOVLW   0x05
0001C4 6F6E           00280         MOVWF   soft_pwm.duration, BANKED
0001C6 EC51 F000      00281         CALL    soft_pwm
0001CA D028           00282         BRA     L.16
0001CC                00283 L.18:
0001CC 0100           00284         MOVLB   0
0001CE 5161           00285         MOVF    main.mode, W, BANKED
0001D0 0E02           00286         MOVLW   0x02
0001D2 5D61           00287         SUBWF   main.mode, W, BANKED
0001D4 6AE8           00288         CLRF    WREG, ACCESS
0001D6 B4D8           00289         BTFSC   STATUS, Z, ACCESS
0001D8 0E01           00290         MOVLW   1
0001DA                00291 comp_false_24:
0001DA 0100           00292         MOVLB   0
0001DC 6F6B           00293         MOVWF   tmp.22, BANKED
0001DE 0BFF           00294         ANDLW   0xFF
0001E0 E007           00295         BZ      L.19
0001E2 0E08           00296         MOVLW   0x08
0001E4 6F6F           00297         MOVWF   soft_pwm.duty_cycle, BANKED
0001E6 0E05           00298         MOVLW   0x05
0001E8 6F6E           00299         MOVWF   soft_pwm.duration, BANKED
0001EA EC51 F000      00300         CALL    soft_pwm
0001EE D016           00301         BRA     L.16
0001F0                00302 L.19:
0001F0 0100           00303         MOVLB   0
0001F2 5161           00304         MOVF    main.mode, W, BANKED
0001F4 0E03           00305         MOVLW   0x03
0001F6 5D61           00306         SUBWF   main.mode, W, BANKED
0001F8 6AE8           00307         CLRF    WREG, ACCESS
gpasm-1.5.2 #1325 (Feb 10 2026) dist/firmware   02/11/26  23:18:33          PAGE  7


LOC    OBJECT CODE    LINE  SOURCE TEXT
  VALUE

0001FA B4D8           00308         BTFSC   STATUS, Z, ACCESS
0001FC 0E01           00309         MOVLW   1
0001FE                00310 comp_false_26:
0001FE 0100           00311         MOVLB   0
000200 6F6C           00312         MOVWF   tmp.23, BANKED
000202 0BFF           00313         ANDLW   0xFF
000204 E00B           00314         BZ      L.16
000206 848B           00315         BSF     0xF8B, 2, ACCESS
000208 0E32           00316         MOVLW   0x32
00020A 6F75           00317         MOVWF   delay_ms.ms, BANKED
00020C EC06 F000      00318         CALL    delay_ms
000210 948B           00319         BCF     0xF8B, 2, ACCESS
000212 0E32           00320         MOVLW   0x32
Message[1302]: RAM Bank undefined in this chunk of code. Ensure that bank bits are correct. Assuming bank 0 from now on.
000214 6F75           00321         MOVWF   delay_ms.ms, BANKED
000216 EC06 F000      00322         CALL    delay_ms
00021A D000           00323         BRA     L.16
00021C                00324 L.16:
00021C D783           00325         BRA     L.10
00021E                00326 L.11:
00021E 0012           00327         RETURN
                      00328         END
gpasm-1.5.2 #1325 (Feb 10 2026) dist/firmware   02/11/26  23:18:33          PAGE  8


SYMBOL TABLE
  LABEL                              TYPE        VALUE         VALUE          VALUE
                                                 (hex)         (dec)          (text)

A                                 CONSTANT      00000000              0
ABDEN                             CONSTANT      00000000              0
ABDOVF                            CONSTANT      00000007              7
ACCESS                            CONSTANT      00000000              0
ACKDT                             CONSTANT      00000005              5
ACKEN                             CONSTANT      00000004              4
ACKSTAT                           CONSTANT      00000006              6
ACKTIM                            CONSTANT      00000007              7
ACQT0                             CONSTANT      00000003              3
ACQT1                             CONSTANT      00000004              4
ACQT2                             CONSTANT      00000005              5
ACTCON                            CONSTANT      00000FB5           4021
ACTD                              CONSTANT      00000006              6
ACTEN                             CONSTANT      00000007              7
ACTIE                             CONSTANT      00000007              7
ACTIF                             CONSTANT      00000007              7
ACTIP                             CONSTANT      00000007              7
ACTLOCK                           CONSTANT      00000003              3
ACTMD                             CONSTANT      00000004              4
ACTOR                             CONSTANT      00000001              1
ACTORS                            CONSTANT      00000001              1
ACTSEL                            CONSTANT      00000007              7
ACTSRC                            CONSTANT      00000004              4
ACTUD                             CONSTANT      00000006              6
ACTVIE                            CONSTANT      00000002              2
ACTVIF                            CONSTANT      00000002              2
ADCMD                             CONSTANT      00000002              2
ADCON0                            CONSTANT      00000FC2           4034
ADCON1                            CONSTANT      00000FC1           4033
ADCON2                            CONSTANT      00000FC0           4032
ADCS0                             CONSTANT      00000000              0
ADCS1                             CONSTANT      00000001              1
ADCS2                             CONSTANT      00000002              2
ADDEN                             CONSTANT      00000003              3
ADDR0                             CONSTANT      00000000              0
ADDR1                             CONSTANT      00000001              1
ADDR2                             CONSTANT      00000002              2
ADDR3                             CONSTANT      00000003              3
ADDR4                             CONSTANT      00000004              4
ADDR5                             CONSTANT      00000005              5
ADDR6                             CONSTANT      00000006              6
ADEN                              CONSTANT      00000003              3
ADFM                              CONSTANT      00000007              7
ADIE                              CONSTANT      00000006              6
ADIF                              CONSTANT      00000006              6
ADIP                              CONSTANT      00000006              6
ADON                              CONSTANT      00000000              0
ADRESH                            CONSTANT      00000FC4           4036
ADRESL                            CONSTANT      00000FC3           4035
AHEN                              CONSTANT      00000001              1
AN0                               CONSTANT      00000000              0
AN1                               CONSTANT      00000001              1
gpasm-1.5.2 #1325 (Feb 10 2026) dist/firmware   02/11/26  23:18:33          PAGE  9


SYMBOL TABLE
  LABEL                              TYPE        VALUE         VALUE          VALUE
                                                 (hex)         (dec)          (text)

AN2                               CONSTANT      00000002              2
AN3                               CONSTANT      00000003              3
AN4                               CONSTANT      00000005              5
ANSA0                             CONSTANT      00000000              0
ANSA1                             CONSTANT      00000001              1
ANSA2                             CONSTANT      00000002              2
ANSA3                             CONSTANT      00000003              3
ANSA5                             CONSTANT      00000005              5
ANSB0                             CONSTANT      00000000              0
ANSB1                             CONSTANT      00000001              1
ANSB2                             CONSTANT      00000002              2
ANSB3                             CONSTANT      00000003              3
ANSB4                             CONSTANT      00000004              4
ANSB5                             CONSTANT      00000005              5
ANSC2                             CONSTANT      00000002              2
ANSC6                             CONSTANT      00000006              6
ANSC7                             CONSTANT      00000007              7
ANSD0                             CONSTANT      00000000              0
ANSD1                             CONSTANT      00000001              1
ANSD2                             CONSTANT      00000002              2
ANSD3                             CONSTANT      00000003              3
ANSD4                             CONSTANT      00000004              4
ANSD5                             CONSTANT      00000005              5
ANSD6                             CONSTANT      00000006              6
ANSD7                             CONSTANT      00000007              7
ANSE0                             CONSTANT      00000000              0
ANSE1                             CONSTANT      00000001              1
ANSE2                             CONSTANT      00000002              2
ANSELA                            CONSTANT      00000F5B           3931
ANSELB                            CONSTANT      00000F5C           3932
ANSELC                            CONSTANT      00000F5D           3933
ANSELD                            CONSTANT      00000F5E           3934
ANSELE                            CONSTANT      00000F5F           3935
BANKED                            CONSTANT      00000001              1
BAUDCON                           CONSTANT      00000FB8           4024
BAUDCON1                          CONSTANT      00000FB8           4024
BCL1IE                            CONSTANT      00000003              3
BCL1IF                            CONSTANT      00000003              3
BCL1IP                            CONSTANT      00000003              3
BCLIE                             CONSTANT      00000003              3
BCLIF                             CONSTANT      00000003              3
BCLIP                             CONSTANT      00000003              3
BF                                CONSTANT      00000000              0
BGVST                             CONSTANT      00000006              6
BOEN                              CONSTANT      00000004              4
BOR                               CONSTANT      00000000              0
BRG0                              CONSTANT      00000000              0
BRG1                              CONSTANT      00000001              1
BRG2                              CONSTANT      00000002              2
BRG3                              CONSTANT      00000003              3
BRG4                              CONSTANT      00000004              4
BRG5                              CONSTANT      00000005              5
gpasm-1.5.2 #1325 (Feb 10 2026) dist/firmware   02/11/26  23:18:33          PAGE 10


SYMBOL TABLE
  LABEL                              TYPE        VALUE         VALUE          VALUE
                                                 (hex)         (dec)          (text)

BRG6                              CONSTANT      00000006              6
BRG7                              CONSTANT      00000007              7
BRG8                              CONSTANT      00000000              0
BRG9                              CONSTANT      00000001              1
BRG10                             CONSTANT      00000002              2
BRG11                             CONSTANT      00000003              3
BRG12                             CONSTANT      00000004              4
BRG13                             CONSTANT      00000005              5
BRG14                             CONSTANT      00000006              6
BRG15                             CONSTANT      00000007              7
BRG16                             CONSTANT      00000003              3
BRGH                              CONSTANT      00000002              2
BSR                               CONSTANT      00000FE0           4064
BTOEE                             CONSTANT      00000004              4
BTOEF                             CONSTANT      00000004              4
BTSEE                             CONSTANT      00000007              7
BTSEF                             CONSTANT      00000007              7
C                                 CONSTANT      00000000              0
C1CH0                             CONSTANT      00000000              0
C1CH1                             CONSTANT      00000001              1
C1HYS                             CONSTANT      00000003              3
C1IE                              CONSTANT      00000006              6
C1IF                              CONSTANT      00000006              6
C1IP                              CONSTANT      00000006              6
C1OE                              CONSTANT      00000005              5
C1ON                              CONSTANT      00000007              7
C1OUT                             CONSTANT      00000006              6
C1POL                             CONSTANT      00000004              4
C1R                               CONSTANT      00000002              2
C1RSEL                            CONSTANT      00000005              5
C1SP                              CONSTANT      00000003              3
C1SYNC                            CONSTANT      00000001              1
C1TSEL                            CONSTANT      00000000              0
C2CH0                             CONSTANT      00000000              0
C2CH1                             CONSTANT      00000001              1
C2HYS                             CONSTANT      00000002              2
C2IE                              CONSTANT      00000005              5
C2IF                              CONSTANT      00000005              5
C2IP                              CONSTANT      00000005              5
C2OE                              CONSTANT      00000005              5
C2ON                              CONSTANT      00000007              7
C2OUT                             CONSTANT      00000006              6
C2POL                             CONSTANT      00000004              4
C2R                               CONSTANT      00000002              2
C2RSEL                            CONSTANT      00000004              4
C2SP                              CONSTANT      00000003              3
C2SYNC                            CONSTANT      00000000              0
C2TSEL                            CONSTANT      00000003              3
CCH0                              CONSTANT      00000000              0
CCH1                              CONSTANT      00000001              1
CCP1                              CONSTANT      00000002              2
CCP1ASE                           CONSTANT      00000007              7
gpasm-1.5.2 #1325 (Feb 10 2026) dist/firmware   02/11/26  23:18:33          PAGE 11


SYMBOL TABLE
  LABEL                              TYPE        VALUE         VALUE          VALUE
                                                 (hex)         (dec)          (text)

CCP1CON                           CONSTANT      00000FBD           4029
CCP1IE                            CONSTANT      00000002              2
CCP1IF                            CONSTANT      00000002              2
CCP1IP                            CONSTANT      00000002              2
CCP1M0                            CONSTANT      00000000              0
CCP1M1                            CONSTANT      00000001              1
CCP1M2                            CONSTANT      00000002              2
CCP1M3                            CONSTANT      00000003              3
CCP1MD                            CONSTANT      00000000              0
CCP1X                             CONSTANT      00000005              5
CCP1Y                             CONSTANT      00000004              4
CCP2CON                           CONSTANT      00000F97           3991
CCP2IE                            CONSTANT      00000000              0
CCP2IF                            CONSTANT      00000000              0
CCP2IP                            CONSTANT      00000000              0
CCP2M0                            CONSTANT      00000000              0
CCP2M1                            CONSTANT      00000001              1
CCP2M2                            CONSTANT      00000002              2
CCP2M3                            CONSTANT      00000003              3
CCP2MD                            CONSTANT      00000001              1
CCP2X                             CONSTANT      00000005              5
CCP2Y                             CONSTANT      00000004              4
CCPR1                             CONSTANT      00000FBE           4030
CCPR1H                            CONSTANT      00000FBF           4031
CCPR1L                            CONSTANT      00000FBE           4030
CCPR2                             CONSTANT      00000F90           3984
CCPR2H                            CONSTANT      00000F91           3985
CCPR2L                            CONSTANT      00000F90           3984
CCPTMRS                           CONSTANT      00000F59           3929
CFGS                              CONSTANT      00000006              6
CK                                CONSTANT      00000006              6
CK1SPP                            CONSTANT      00000000              0
CK2SPP                            CONSTANT      00000001              1
CKE                               CONSTANT      00000006              6
CKP                               CONSTANT      00000004              4
CKTXP                             CONSTANT      00000004              4
CM1CON0                           CONSTANT      00000F98           3992
CM1IE                             CONSTANT      00000006              6
CM1IF                             CONSTANT      00000006              6
CM1IP                             CONSTANT      00000006              6
CM2CON0                           CONSTANT      00000F99           3993
CM2CON1                           CONSTANT      00000F9A           3994
CM2IE                             CONSTANT      00000005              5
CM2IF                             CONSTANT      00000005              5
CM2IP                             CONSTANT      00000005              5
CMP1MD                            CONSTANT      00000003              3
CMP2MD                            CONSTANT      00000004              4
COE                               CONSTANT      00000005              5
CON                               CONSTANT      00000007              7
COUT1                             CONSTANT      00000006              6
COUT2                             CONSTANT      00000006              6
CPOL                              CONSTANT      00000004              4
gpasm-1.5.2 #1325 (Feb 10 2026) dist/firmware   02/11/26  23:18:33          PAGE 12


SYMBOL TABLE
  LABEL                              TYPE        VALUE         VALUE          VALUE
                                                 (hex)         (dec)          (text)

CRC5EE                            CONSTANT      00000001              1
CRC5EF                            CONSTANT      00000001              1
CRC16EE                           CONSTANT      00000002              2
CRC16EF                           CONSTANT      00000002              2
CREF                              CONSTANT      00000002              2
CREN                              CONSTANT      00000004              4
CSRC                              CONSTANT      00000007              7
CTMUCON0                          CONSTANT      00000F8F           3983
CTMUCON1                          CONSTANT      00000F8E           3982
CTMUCONH                          CONSTANT      00000F8F           3983
CTMUCONL                          CONSTANT      00000F8E           3982
CTMUEN                            CONSTANT      00000007              7
CTMUICON                          CONSTANT      00000F88           3976
CTMUIE                            CONSTANT      00000003              3
CTMUIF                            CONSTANT      00000003              3
CTMUIP                            CONSTANT      00000003              3
CTMUMD                            CONSTANT      00000005              5
CTMUSIDL                          CONSTANT      00000005              5
CTTRIG                            CONSTANT      00000000              0
DACEN                             CONSTANT      00000007              7
DACLPS                            CONSTANT      00000006              6
DACNSS                            CONSTANT      00000000              0
DACOE                             CONSTANT      00000005              5
DACPSS0                           CONSTANT      00000002              2
DACPSS1                           CONSTANT      00000003              3
DACR0                             CONSTANT      00000000              0
DACR1                             CONSTANT      00000001              1
DACR2                             CONSTANT      00000002              2
DACR3                             CONSTANT      00000003              3
DACR4                             CONSTANT      00000004              4
DC                                CONSTANT      00000001              1
DC1B0                             CONSTANT      00000004              4
DC1B1                             CONSTANT      00000005              5
DC2B0                             CONSTANT      00000004              4
DC2B1                             CONSTANT      00000005              5
DDRA                              DEFINITION                               TRISA
DDRB                              DEFINITION                               TRISB
DDRC                              DEFINITION                               TRISC
DDRD                              DEFINITION                               TRISD
DDRE                              DEFINITION                               TRISE
DFN8EE                            CONSTANT      00000003              3
DFN8EF                            CONSTANT      00000003              3
DHEN                              CONSTANT      00000000              0
DIR                               CONSTANT      00000002              2
DONE                              CONSTANT      00000001              1
DTRXP                             CONSTANT      00000005              5
D_NOT_A                           CONSTANT      00000005              5
ECCP1AS                           CONSTANT      00000FB6           4022
ECCP1AS0                          CONSTANT      00000004              4
ECCP1AS1                          CONSTANT      00000005              5
ECCP1AS2                          CONSTANT      00000006              6
ECCP1ASE                          CONSTANT      00000007              7
gpasm-1.5.2 #1325 (Feb 10 2026) dist/firmware   02/11/26  23:18:33          PAGE 13


SYMBOL TABLE
  LABEL                              TYPE        VALUE         VALUE          VALUE
                                                 (hex)         (dec)          (text)

ECCP1CON                          CONSTANT      00000FBD           4029
ECCP1DEL                          CONSTANT      00000FB7           4023
ECCP2CON                          CONSTANT      00000F97           3991
EDG1POL                           CONSTANT      00000004              4
EDG1SEL0                          CONSTANT      00000002              2
EDG1SEL1                          CONSTANT      00000003              3
EDG1STAT                          CONSTANT      00000000              0
EDG2POL                           CONSTANT      00000007              7
EDG2SEL0                          CONSTANT      00000005              5
EDG2SEL1                          CONSTANT      00000006              6
EDG2STAT                          CONSTANT      00000001              1
EDGEN                             CONSTANT      00000003              3
EDGSEQEN                          CONSTANT      00000002              2
EEADR                             CONSTANT      00000FA9           4009
EECON1                            CONSTANT      00000FA6           4006
EECON2                            CONSTANT      00000FA7           4007
EEDATA                            CONSTANT      00000FA8           4008
EEIE                              CONSTANT      00000004              4
EEIF                              CONSTANT      00000004              4
EEIP                              CONSTANT      00000004              4
EEPGD                             CONSTANT      00000007              7
ENDP0                             CONSTANT      00000003              3
ENDP1                             CONSTANT      00000004              4
ENDP2                             CONSTANT      00000005              5
ENDP3                             CONSTANT      00000006              6
EPCONDIS                          CONSTANT      00000003              3
EPHSHK                            CONSTANT      00000004              4
EPINEN                            CONSTANT      00000001              1
EPOUTEN                           CONSTANT      00000002              2
EPSTALL                           CONSTANT      00000000              0
FAST                              CONSTANT      00000001              1
FERR                              CONSTANT      00000002              2
FLTS                              CONSTANT      00000002              2
FREE                              CONSTANT      00000004              4
FRM0                              CONSTANT      00000000              0
FRM1                              CONSTANT      00000001              1
FRM2                              CONSTANT      00000002              2
FRM3                              CONSTANT      00000003              3
FRM4                              CONSTANT      00000004              4
FRM5                              CONSTANT      00000005              5
FRM6                              CONSTANT      00000006              6
FRM7                              CONSTANT      00000007              7
FRM8                              CONSTANT      00000000              0
FRM9                              CONSTANT      00000001              1
FRM10                             CONSTANT      00000002              2
FSEN                              CONSTANT      00000002              2
FSR0                              CONSTANT      00000000              0
FSR0H                             CONSTANT      00000FEA           4074
FSR0L                             CONSTANT      00000FE9           4073
FSR1                              CONSTANT      00000001              1
FSR1H                             CONSTANT      00000FE2           4066
FSR1L                             CONSTANT      00000FE1           4065
gpasm-1.5.2 #1325 (Feb 10 2026) dist/firmware   02/11/26  23:18:33          PAGE 14


SYMBOL TABLE
  LABEL                              TYPE        VALUE         VALUE          VALUE
                                                 (hex)         (dec)          (text)

FSR2                              CONSTANT      00000002              2
FSR2H                             CONSTANT      00000FDA           4058
FSR2L                             CONSTANT      00000FD9           4057
FVREN                             CONSTANT      00000007              7
FVRS0                             CONSTANT      00000004              4
FVRS1                             CONSTANT      00000005              5
FVRST                             CONSTANT      00000006              6
GCEN                              CONSTANT      00000007              7
GIE                               CONSTANT      00000007              7
GIEH                              CONSTANT      00000007              7
GIEL                              CONSTANT      00000006              6
GIE_GIEH                          CONSTANT      00000007              7
GO                                CONSTANT      00000001              1
GO_NOT_DONE                       CONSTANT      00000001              1
HFIOFR                            CONSTANT      00000001              1
HFIOFS                            CONSTANT      00000002              2
HLVDCON                           CONSTANT      00000F9C           3996
HLVDEN                            CONSTANT      00000004              4
HLVDIE                            CONSTANT      00000002              2
HLVDIF                            CONSTANT      00000002              2
HLVDIN                            CONSTANT      00000005              5
HLVDIP                            CONSTANT      00000002              2
HLVDL0                            CONSTANT      00000000              0
HLVDL1                            CONSTANT      00000001              1
HLVDL2                            CONSTANT      00000002              2
HLVDL3                            CONSTANT      00000003              3
IDISSEN                           CONSTANT      00000001              1
IDLEIE                            CONSTANT      00000004              4
IDLEIF                            CONSTANT      00000004              4
IDLEN                             CONSTANT      00000007              7
INDF0                             CONSTANT      00000FEF           4079
INDF1                             CONSTANT      00000FE7           4071
INDF2                             CONSTANT      00000FDF           4063
INT0                              CONSTANT      00000000              0
INT0E                             CONSTANT      00000004              4
INT0F                             CONSTANT      00000001              1
INT0IE                            CONSTANT      00000004              4
INT0IF                            CONSTANT      00000001              1
INT1                              CONSTANT      00000001              1
INT1E                             CONSTANT      00000003              3
INT1F                             CONSTANT      00000000              0
INT1IE                            CONSTANT      00000003              3
INT1IF                            CONSTANT      00000000              0
INT1IP                            CONSTANT      00000006              6
INT1P                             CONSTANT      00000006              6
INT2                              CONSTANT      00000002              2
INT2E                             CONSTANT      00000004              4
INT2F                             CONSTANT      00000001              1
INT2IE                            CONSTANT      00000004              4
INT2IF                            CONSTANT      00000001              1
INT2IP                            CONSTANT      00000007              7
INT2P                             CONSTANT      00000007              7
gpasm-1.5.2 #1325 (Feb 10 2026) dist/firmware   02/11/26  23:18:33          PAGE 15


SYMBOL TABLE
  LABEL                              TYPE        VALUE         VALUE          VALUE
                                                 (hex)         (dec)          (text)

INTCON                            CONSTANT      00000FF2           4082
INTCON2                           CONSTANT      00000FF1           4081
INTCON3                           CONSTANT      00000FF0           4080
INTEDG0                           CONSTANT      00000006              6
INTEDG1                           CONSTANT      00000005              5
INTEDG2                           CONSTANT      00000004              4
INTSRC                            CONSTANT      00000005              5
IOCB                              CONSTANT      00000F86           3974
IOCB4                             CONSTANT      00000004              4
IOCB5                             CONSTANT      00000005              5
IOCB6                             CONSTANT      00000006              6
IOCB7                             CONSTANT      00000007              7
IOCC                              CONSTANT      00000F87           3975
IOCC0                             CONSTANT      00000000              0
IOCC1                             CONSTANT      00000001              1
IOCC2                             CONSTANT      00000002              2
IOCC4                             CONSTANT      00000004              4
IOCC5                             CONSTANT      00000005              5
IOCC6                             CONSTANT      00000006              6
IOCC7                             CONSTANT      00000007              7
IOCIE                             CONSTANT      00000003              3
IOCIF                             CONSTANT      00000000              0
IOCIP                             CONSTANT      00000000              0
IPEN                              CONSTANT      00000007              7
IPR1                              CONSTANT      00000F9F           3999
IPR2                              CONSTANT      00000FA2           4002
IPR3                              CONSTANT      00000FA5           4005
IRCF0                             CONSTANT      00000004              4
IRCF1                             CONSTANT      00000005              5
IRCF2                             CONSTANT      00000006              6
IRNG0                             CONSTANT      00000000              0
IRNG1                             CONSTANT      00000001              1
IRVST                             CONSTANT      00000005              5
ITRIM0                            CONSTANT      00000002              2
ITRIM1                            CONSTANT      00000003              3
ITRIM2                            CONSTANT      00000004              4
ITRIM3                            CONSTANT      00000005              5
ITRIM4                            CONSTANT      00000006              6
ITRIM5                            CONSTANT      00000007              7
L.0                               ADDRESS       0000000C             12
L.1                               ADDRESS       00000056             86
L.2                               ADDRESS       0000002A             42
L.3                               ADDRESS       0000004C             76
L.4                               ADDRESS       0000009E            158
L.5                               ADDRESS       0000009C            156
L.6                               ADDRESS       000000A2            162
L.7                               ADDRESS       00000118            280
L.8                               ADDRESS       000000E0            224
L.9                               ADDRESS       0000010E            270
L.10                              ADDRESS       00000124            292
L.11                              ADDRESS       0000021E            542
L.12                              ADDRESS       0000018E            398
gpasm-1.5.2 #1325 (Feb 10 2026) dist/firmware   02/11/26  23:18:33          PAGE 16


SYMBOL TABLE
  LABEL                              TYPE        VALUE         VALUE          VALUE
                                                 (hex)         (dec)          (text)

L.13                              ADDRESS       00000166            358
L.14                              ADDRESS       00000166            358
L.15                              ADDRESS       0000018C            396
L.16                              ADDRESS       0000021C            540
L.17                              ADDRESS       000001A8            424
L.18                              ADDRESS       000001CC            460
L.19                              ADDRESS       000001F0            496
LATA                              CONSTANT      00000F89           3977
LATA0                             CONSTANT      00000000              0
LATA1                             CONSTANT      00000001              1
LATA2                             CONSTANT      00000002              2
LATA3                             CONSTANT      00000003              3
LATA4                             CONSTANT      00000004              4
LATA5                             CONSTANT      00000005              5
LATA6                             CONSTANT      00000006              6
LATA7                             CONSTANT      00000007              7
LATB                              CONSTANT      00000F8A           3978
LATB0                             CONSTANT      00000000              0
LATB1                             CONSTANT      00000001              1
LATB2                             CONSTANT      00000002              2
LATB3                             CONSTANT      00000003              3
LATB4                             CONSTANT      00000004              4
LATB5                             CONSTANT      00000005              5
LATB6                             CONSTANT      00000006              6
LATB7                             CONSTANT      00000007              7
LATC                              CONSTANT      00000F8B           3979
LATC0                             CONSTANT      00000000              0
LATC1                             CONSTANT      00000001              1
LATC2                             CONSTANT      00000002              2
LATC4                             CONSTANT      00000004              4
LATC5                             CONSTANT      00000005              5
LATC6                             CONSTANT      00000006              6
LATC7                             CONSTANT      00000007              7
LATD                              CONSTANT      00000F8C           3980
LATD0                             CONSTANT      00000000              0
LATD1                             CONSTANT      00000001              1
LATD2                             CONSTANT      00000002              2
LATD3                             CONSTANT      00000003              3
LATD4                             CONSTANT      00000004              4
LATD5                             CONSTANT      00000005              5
LATD6                             CONSTANT      00000006              6
LATD7                             CONSTANT      00000007              7
LATE                              CONSTANT      00000F8D           3981
LATE0                             CONSTANT      00000000              0
LATE1                             CONSTANT      00000001              1
LATE2                             CONSTANT      00000002              2
LFIOFS                            CONSTANT      00000000              0
LVDIE                             CONSTANT      00000002              2
LVDIF                             CONSTANT      00000002              2
LVDIN                             CONSTANT      00000005              5
LVDIP                             CONSTANT      00000002              2
MC1OUT                            CONSTANT      00000007              7
gpasm-1.5.2 #1325 (Feb 10 2026) dist/firmware   02/11/26  23:18:33          PAGE 17


SYMBOL TABLE
  LABEL                              TYPE        VALUE         VALUE          VALUE
                                                 (hex)         (dec)          (text)

MC2OUT                            CONSTANT      00000006              6
MSSP1MD                           CONSTANT      00000006              6
MSSPMD                            CONSTANT      00000006              6
N                                 CONSTANT      00000004              4
NOT_BOR                           CONSTANT      00000000              0
NOT_DONE                          CONSTANT      00000001              1
NOT_PD                            CONSTANT      00000002              2
NOT_POR                           CONSTANT      00000001              1
NOT_RBPU                          CONSTANT      00000007              7
NOT_RI                            CONSTANT      00000004              4
NOT_T1DONE                        CONSTANT      00000003              3
NOT_T1SYNC                        CONSTANT      00000002              2
NOT_T3DONE                        CONSTANT      00000003              3
NOT_T3SYNC                        CONSTANT      00000002              2
NOT_TO                            CONSTANT      00000003              3
NVCFG0                            CONSTANT      00000000              0
NVCFG1                            CONSTANT      00000001              1
OERR                              CONSTANT      00000001              1
OESPP                             CONSTANT      00000002              2
ON                                CONSTANT      00000007              7
OSC2                              CONSTANT      00000006              6
OSCCON                            CONSTANT      00000FD3           4051
OSCCON2                           CONSTANT      00000FD2           4050
OSCFIE                            CONSTANT      00000007              7
OSCFIF                            CONSTANT      00000007              7
OSCFIP                            CONSTANT      00000007              7
OSCTUNE                           CONSTANT      00000F9B           3995
OSTS                              CONSTANT      00000003              3
OV                                CONSTANT      00000003              3
P                                 CONSTANT      00000004              4
P1A                               CONSTANT      00000002              2
P1M0                              CONSTANT      00000006              6
P1M1                              CONSTANT      00000007              7
P1RSEN                            CONSTANT      00000007              7
PC                                CONSTANT      00000FF9           4089
PCIE                              CONSTANT      00000006              6
PCL                               CONSTANT      00000FF9           4089
PCLATH                            CONSTANT      00000FFA           4090
PCLATU                            CONSTANT      00000FFB           4091
PD                                CONSTANT      00000002              2
PDC0                              CONSTANT      00000000              0
PDC1                              CONSTANT      00000001              1
PDC2                              CONSTANT      00000002              2
PDC3                              CONSTANT      00000003              3
PDC4                              CONSTANT      00000004              4
PDC5                              CONSTANT      00000005              5
PDC6                              CONSTANT      00000006              6
PEIE                              CONSTANT      00000006              6
PEIE_GIEL                         CONSTANT      00000006              6
PEN                               CONSTANT      00000002              2
PGC                               CONSTANT      00000006              6
PGD                               CONSTANT      00000007              7
gpasm-1.5.2 #1325 (Feb 10 2026) dist/firmware   02/11/26  23:18:33          PAGE 18


SYMBOL TABLE
  LABEL                              TYPE        VALUE         VALUE          VALUE
                                                 (hex)         (dec)          (text)

PGM                               CONSTANT      00000005              5
PIDEE                             CONSTANT      00000000              0
PIDEF                             CONSTANT      00000000              0
PIE1                              CONSTANT      00000F9D           3997
PIE2                              CONSTANT      00000FA0           4000
PIE3                              CONSTANT      00000FA3           4003
PIR1                              CONSTANT      00000F9E           3998
PIR2                              CONSTANT      00000FA1           4001
PIR3                              CONSTANT      00000FA4           4004
PKTDIS                            CONSTANT      00000004              4
PLLEN                             CONSTANT      00000004              4
PLLRDY                            CONSTANT      00000007              7
PLUSW0                            CONSTANT      00000FEB           4075
PLUSW1                            CONSTANT      00000FE3           4067
PLUSW2                            CONSTANT      00000FDB           4059
PMD0                              CONSTANT      00000F7E           3966
PMD1                              CONSTANT      00000F7F           3967
POR                               CONSTANT      00000001              1
PORTA                             CONSTANT      00000F80           3968
PORTB                             CONSTANT      00000F81           3969
PORTC                             CONSTANT      00000F82           3970
PORTD                             CONSTANT      00000F83           3971
PORTE                             CONSTANT      00000F84           3972
POSTDEC0                          CONSTANT      00000FED           4077
POSTDEC1                          CONSTANT      00000FE5           4069
POSTDEC2                          CONSTANT      00000FDD           4061
POSTINC0                          CONSTANT      00000FEE           4078
POSTINC1                          CONSTANT      00000FE6           4070
POSTINC2                          CONSTANT      00000FDE           4062
PPB0                              CONSTANT      00000000              0
PPB1                              CONSTANT      00000001              1
PPBI                              CONSTANT      00000001              1
PPBRST                            CONSTANT      00000006              6
PR1SEN                            CONSTANT      00000007              7
PR2                               CONSTANT      00000FBB           4027
PREINC0                           CONSTANT      00000FEC           4076
PREINC1                           CONSTANT      00000FE4           4068
PREINC2                           CONSTANT      00000FDC           4060
PRISD                             CONSTANT      00000002              2
PROD                              CONSTANT      00000FF3           4083
PRODH                             CONSTANT      00000FF4           4084
PRODL                             CONSTANT      00000FF3           4083
PSA                               CONSTANT      00000003              3
PSS1AC0                           CONSTANT      00000002              2
PSS1AC1                           CONSTANT      00000003              3
PSS1BD0                           CONSTANT      00000000              0
PSS1BD1                           CONSTANT      00000001              1
PSSAC0                            CONSTANT      00000002              2
PSSAC1                            CONSTANT      00000003              3
PSSBD0                            CONSTANT      00000000              0
PSSBD1                            CONSTANT      00000001              1
PSTR1CON                          CONSTANT      00000FB9           4025
gpasm-1.5.2 #1325 (Feb 10 2026) dist/firmware   02/11/26  23:18:33          PAGE 19


SYMBOL TABLE
  LABEL                              TYPE        VALUE         VALUE          VALUE
                                                 (hex)         (dec)          (text)

PVCFG0                            CONSTANT      00000002              2
PVCFG1                            CONSTANT      00000003              3
PWM1CON                           CONSTANT      00000FB7           4023
RA0                               CONSTANT      00000000              0
RA1                               CONSTANT      00000001              1
RA2                               CONSTANT      00000002              2
RA3                               CONSTANT      00000003              3
RA4                               CONSTANT      00000004              4
RA5                               CONSTANT      00000005              5
RA6                               CONSTANT      00000006              6
RA7                               CONSTANT      00000007              7
RB0                               CONSTANT      00000000              0
RB1                               CONSTANT      00000001              1
RB2                               CONSTANT      00000002              2
RB3                               CONSTANT      00000003              3
RB4                               CONSTANT      00000004              4
RB5                               CONSTANT      00000005              5
RB6                               CONSTANT      00000006              6
RB7                               CONSTANT      00000007              7
RBPU                              CONSTANT      00000007              7
RC0                               CONSTANT      00000000              0
RC1                               CONSTANT      00000001              1
RC1IE                             CONSTANT      00000005              5
RC1IF                             CONSTANT      00000005              5
RC1IP                             CONSTANT      00000005              5
RC2                               CONSTANT      00000002              2
RC4                               CONSTANT      00000004              4
RC5                               CONSTANT      00000005              5
RC6                               CONSTANT      00000006              6
RC7                               CONSTANT      00000007              7
RCEN                              CONSTANT      00000003              3
RCIDL                             CONSTANT      00000006              6
RCIE                              CONSTANT      00000005              5
RCIF                              CONSTANT      00000005              5
RCIP                              CONSTANT      00000005              5
RCMT                              CONSTANT      00000006              6
RCON                              CONSTANT      00000FD0           4048
RCREG                             CONSTANT      00000FAE           4014
RCREG1                            CONSTANT      00000FAE           4014
RCSTA                             CONSTANT      00000FAB           4011
RCSTA1                            CONSTANT      00000FAB           4011
RD                                CONSTANT      00000000              0
RD0                               CONSTANT      00000000              0
RD1                               CONSTANT      00000001              1
RD2                               CONSTANT      00000002              2
RD3                               CONSTANT      00000003              3
RD4                               CONSTANT      00000004              4
RD5                               CONSTANT      00000005              5
RD6                               CONSTANT      00000006              6
RD7                               CONSTANT      00000007              7
RD16                              CONSTANT      00000001              1
RE0                               CONSTANT      00000000              0
gpasm-1.5.2 #1325 (Feb 10 2026) dist/firmware   02/11/26  23:18:33          PAGE 20


SYMBOL TABLE
  LABEL                              TYPE        VALUE         VALUE          VALUE
                                                 (hex)         (dec)          (text)

RE1                               CONSTANT      00000001              1
RE2                               CONSTANT      00000002              2
RE3                               CONSTANT      00000003              3
RESUME                            CONSTANT      00000002              2
RI                                CONSTANT      00000004              4
RSEN                              CONSTANT      00000001              1
RX                                CONSTANT      00000007              7
RX9                               CONSTANT      00000006              6
RX9D                              CONSTANT      00000000              0
RXDTP                             CONSTANT      00000005              5
R_NOT_W                           CONSTANT      00000002              2
S                                 CONSTANT      00000003              3
SBCDE                             CONSTANT      00000002              2
SBOREN                            CONSTANT      00000006              6
SCIE                              CONSTANT      00000005              5
SCKP                              CONSTANT      00000004              4
SCS0                              CONSTANT      00000000              0
SCS1                              CONSTANT      00000001              1
SDAHT                             CONSTANT      00000003              3
SE0                               CONSTANT      00000005              5
SEN                               CONSTANT      00000000              0
SENDB                             CONSTANT      00000003              3
SIDL                              CONSTANT      00000005              5
SLRA                              CONSTANT      00000000              0
SLRB                              CONSTANT      00000001              1
SLRC                              CONSTANT      00000002              2
SLRCON                            CONSTANT      00000F7A           3962
SLRD                              CONSTANT      00000003              3
SLRE                              CONSTANT      00000004              4
SMP                               CONSTANT      00000007              7
SOFIE                             CONSTANT      00000006              6
SOFIF                             CONSTANT      00000006              6
SOSCEN                            CONSTANT      00000003              3
SOSCGO                            CONSTANT      00000003              3
SOSCRUN                           CONSTANT      00000006              6
SP0                               CONSTANT      00000000              0
SP1                               CONSTANT      00000001              1
SP2                               CONSTANT      00000002              2
SP3                               CONSTANT      00000003              3
SP4                               CONSTANT      00000004              4
SPBRG                             CONSTANT      00000FAF           4015
SPBRG1                            CONSTANT      00000FAF           4015
SPBRGH                            CONSTANT      00000FB0           4016
SPBRGH1                           CONSTANT      00000FB0           4016
SPEN                              CONSTANT      00000007              7
SPLLMULT                          CONSTANT      00000007              7
SPP0                              CONSTANT      00000000              0
SPP1                              CONSTANT      00000001              1
SPP2                              CONSTANT      00000002              2
SPP3                              CONSTANT      00000003              3
SPP4                              CONSTANT      00000004              4
SPP5                              CONSTANT      00000005              5
gpasm-1.5.2 #1325 (Feb 10 2026) dist/firmware   02/11/26  23:18:33          PAGE 21


SYMBOL TABLE
  LABEL                              TYPE        VALUE         VALUE          VALUE
                                                 (hex)         (dec)          (text)

SPP6                              CONSTANT      00000006              6
SPP7                              CONSTANT      00000007              7
SRCLK0                            CONSTANT      00000004              4
SRCLK1                            CONSTANT      00000005              5
SRCLK2                            CONSTANT      00000006              6
SRCON0                            CONSTANT      00000F58           3928
SRCON1                            CONSTANT      00000F57           3927
SREN                              CONSTANT      00000005              5
SRLEN                             CONSTANT      00000007              7
SRNQEN                            CONSTANT      00000002              2
SRPR                              CONSTANT      00000000              0
SRPS                              CONSTANT      00000001              1
SRQEN                             CONSTANT      00000003              3
SRRC1E                            CONSTANT      00000000              0
SRRC2E                            CONSTANT      00000001              1
SRRCKE                            CONSTANT      00000002              2
SRRPE                             CONSTANT      00000003              3
SRSC1E                            CONSTANT      00000004              4
SRSC2E                            CONSTANT      00000005              5
SRSCKE                            CONSTANT      00000006              6
SRSPE                             CONSTANT      00000007              7
SSP1ADD                           CONSTANT      00000FC8           4040
SSP1ADD0                          CONSTANT      00000000              0
SSP1ADD1                          CONSTANT      00000001              1
SSP1ADD2                          CONSTANT      00000002              2
SSP1ADD3                          CONSTANT      00000003              3
SSP1ADD4                          CONSTANT      00000004              4
SSP1ADD5                          CONSTANT      00000005              5
SSP1ADD6                          CONSTANT      00000006              6
SSP1ADD7                          CONSTANT      00000007              7
SSP1BUF                           CONSTANT      00000FC9           4041
SSP1CON1                          CONSTANT      00000FC6           4038
SSP1CON2                          CONSTANT      00000FC5           4037
SSP1CON3                          CONSTANT      00000FCB           4043
SSP1IE                            CONSTANT      00000003              3
SSP1IF                            CONSTANT      00000003              3
SSP1IP                            CONSTANT      00000003              3
SSP1MD                            CONSTANT      00000006              6
SSP1MSK                           CONSTANT      00000FCA           4042
SSP1MSK0                          CONSTANT      00000000              0
SSP1MSK1                          CONSTANT      00000001              1
SSP1MSK2                          CONSTANT      00000002              2
SSP1MSK3                          CONSTANT      00000003              3
SSP1MSK4                          CONSTANT      00000004              4
SSP1MSK5                          CONSTANT      00000005              5
SSP1MSK6                          CONSTANT      00000006              6
SSP1MSK7                          CONSTANT      00000007              7
SSP1STAT                          CONSTANT      00000FC7           4039
SSPADD                            CONSTANT      00000FC8           4040
SSPBUF                            CONSTANT      00000FC9           4041
SSPCON                            CONSTANT      00000FC6           4038
SSPCON1                           CONSTANT      00000FC6           4038
gpasm-1.5.2 #1325 (Feb 10 2026) dist/firmware   02/11/26  23:18:33          PAGE 22


SYMBOL TABLE
  LABEL                              TYPE        VALUE         VALUE          VALUE
                                                 (hex)         (dec)          (text)

SSPCON2                           CONSTANT      00000FC5           4037
SSPCON3                           CONSTANT      00000FCB           4043
SSPEN                             CONSTANT      00000005              5
SSPIE                             CONSTANT      00000003              3
SSPIF                             CONSTANT      00000003              3
SSPIP                             CONSTANT      00000003              3
SSPM0                             CONSTANT      00000000              0
SSPM1                             CONSTANT      00000001              1
SSPM2                             CONSTANT      00000002              2
SSPM3                             CONSTANT      00000003              3
SSPMSK                            CONSTANT      00000FCA           4042
SSPOV                             CONSTANT      00000006              6
SSPSTAT                           CONSTANT      00000FC7           4039
STALLIE                           CONSTANT      00000005              5
STALLIF                           CONSTANT      00000005              5
STATUS                            CONSTANT      00000FD8           4056
STCON                             CONSTANT      00000FB5           4021
STEN                              CONSTANT      00000007              7
STIE                              CONSTANT      00000007              7
STIF                              CONSTANT      00000007              7
STIP                              CONSTANT      00000007              7
STKFUL                            CONSTANT      00000007              7
STKOVF                            CONSTANT      00000007              7
STKPTR                            CONSTANT      00000FFC           4092
STKUNF                            CONSTANT      00000006              6
STLOCK                            CONSTANT      00000003              3
STMD                              CONSTANT      00000004              4
STOR                              CONSTANT      00000001              1
STR1A                             CONSTANT      00000000              0
STR1B                             CONSTANT      00000001              1
STR1C                             CONSTANT      00000002              2
STR1D                             CONSTANT      00000003              3
STR1SYNC                          CONSTANT      00000004              4
STRA                              CONSTANT      00000000              0
STRB                              CONSTANT      00000001              1
STRC                              CONSTANT      00000002              2
STRD                              CONSTANT      00000003              3
STRSYNC                           CONSTANT      00000004              4
STSRC                             CONSTANT      00000004              4
STUD                              CONSTANT      00000006              6
SUSPND                            CONSTANT      00000001              1
SWDTE                             CONSTANT      00000000              0
SWDTEN                            CONSTANT      00000000              0
SYNC                              CONSTANT      00000004              4
T08BIT                            CONSTANT      00000006              6
T0CKI                             CONSTANT      00000004              4
T0CON                             CONSTANT      00000FD5           4053
T0CS                              CONSTANT      00000005              5
T0IE                              CONSTANT      00000005              5
T0IF                              CONSTANT      00000002              2
T0IP                              CONSTANT      00000002              2
T0PS0                             CONSTANT      00000000              0
gpasm-1.5.2 #1325 (Feb 10 2026) dist/firmware   02/11/26  23:18:33          PAGE 23


SYMBOL TABLE
  LABEL                              TYPE        VALUE         VALUE          VALUE
                                                 (hex)         (dec)          (text)

T0PS1                             CONSTANT      00000001              1
T0PS2                             CONSTANT      00000002              2
T0SE                              CONSTANT      00000004              4
T1CKPS0                           CONSTANT      00000004              4
T1CKPS1                           CONSTANT      00000005              5
T1CON                             CONSTANT      00000FCD           4045
T1DONE                            CONSTANT      00000003              3
T1GCON                            CONSTANT      00000FCC           4044
T1GGO                             CONSTANT      00000003              3
T1GGO_NOT_DONE                    CONSTANT      00000003              3
T1GGO_NOT_T1DONE                  CONSTANT      00000003              3
T1GPOL                            CONSTANT      00000006              6
T1GSPM                            CONSTANT      00000004              4
T1GSS0                            CONSTANT      00000000              0
T1GSS1                            CONSTANT      00000001              1
T1GTM                             CONSTANT      00000005              5
T1GVAL                            CONSTANT      00000002              2
T1OSCEN                           CONSTANT      00000003              3
T1OSI                             CONSTANT      00000001              1
T1OSO                             CONSTANT      00000000              0
T1RD16                            CONSTANT      00000001              1
T1SOSCEN                          CONSTANT      00000003              3
T1SYNC                            CONSTANT      00000002              2
T2CKPS0                           CONSTANT      00000000              0
T2CKPS1                           CONSTANT      00000001              1
T2CON                             CONSTANT      00000FBA           4026
T2OUTPS0                          CONSTANT      00000003              3
T2OUTPS1                          CONSTANT      00000004              4
T2OUTPS2                          CONSTANT      00000005              5
T2OUTPS3                          CONSTANT      00000006              6
T3CKPS0                           CONSTANT      00000004              4
T3CKPS1                           CONSTANT      00000005              5
T3CON                             CONSTANT      00000FB1           4017
T3DONE                            CONSTANT      00000003              3
T3GCON                            CONSTANT      00000FB4           4020
T3GGO                             CONSTANT      00000003              3
T3GGO_NOT_DONE                    CONSTANT      00000003              3
T3GGO_NOT_T3DONE                  CONSTANT      00000003              3
T3GPOL                            CONSTANT      00000006              6
T3GSPM                            CONSTANT      00000004              4
T3GSS0                            CONSTANT      00000000              0
T3GSS1                            CONSTANT      00000001              1
T3GTM                             CONSTANT      00000005              5
T3GVAL                            CONSTANT      00000002              2
T3OSCEN                           CONSTANT      00000003              3
T3RD16                            CONSTANT      00000001              1
T3SOSCEN                          CONSTANT      00000003              3
T3SYNC                            CONSTANT      00000002              2
T13CKI                            CONSTANT      00000000              0
TABLAT                            CONSTANT      00000FF5           4085
TBLPTR                            CONSTANT      00000FF6           4086
TBLPTRH                           CONSTANT      00000FF7           4087
gpasm-1.5.2 #1325 (Feb 10 2026) dist/firmware   02/11/26  23:18:33          PAGE 24


SYMBOL TABLE
  LABEL                              TYPE        VALUE         VALUE          VALUE
                                                 (hex)         (dec)          (text)

TBLPTRL                           CONSTANT      00000FF6           4086
TBLPTRU                           CONSTANT      00000FF8           4088
TGEN                              CONSTANT      00000004              4
TMR0                              CONSTANT      00000FD6           4054
TMR0H                             CONSTANT      00000FD7           4055
TMR0IE                            CONSTANT      00000005              5
TMR0IF                            CONSTANT      00000002              2
TMR0IP                            CONSTANT      00000002              2
TMR0L                             CONSTANT      00000FD6           4054
TMR0ON                            CONSTANT      00000007              7
TMR1                              CONSTANT      00000FCE           4046
TMR1CS0                           CONSTANT      00000006              6
TMR1CS1                           CONSTANT      00000007              7
TMR1GE                            CONSTANT      00000007              7
TMR1GIE                           CONSTANT      00000000              0
TMR1GIF                           CONSTANT      00000000              0
TMR1GIP                           CONSTANT      00000000              0
TMR1H                             CONSTANT      00000FCF           4047
TMR1IE                            CONSTANT      00000000              0
TMR1IF                            CONSTANT      00000000              0
TMR1IP                            CONSTANT      00000000              0
TMR1L                             CONSTANT      00000FCE           4046
TMR1MD                            CONSTANT      00000000              0
TMR1ON                            CONSTANT      00000000              0
TMR2                              CONSTANT      00000FBC           4028
TMR2IE                            CONSTANT      00000001              1
TMR2IF                            CONSTANT      00000001              1
TMR2IP                            CONSTANT      00000001              1
TMR2MD                            CONSTANT      00000001              1
TMR2ON                            CONSTANT      00000002              2
TMR3                              CONSTANT      00000FB2           4018
TMR3CS0                           CONSTANT      00000006              6
TMR3CS1                           CONSTANT      00000007              7
TMR3GE                            CONSTANT      00000007              7
TMR3GIE                           CONSTANT      00000001              1
TMR3GIF                           CONSTANT      00000001              1
TMR3GIP                           CONSTANT      00000001              1
TMR3H                             CONSTANT      00000FB3           4019
TMR3IE                            CONSTANT      00000001              1
TMR3IF                            CONSTANT      00000001              1
TMR3IP                            CONSTANT      00000001              1
TMR3L                             CONSTANT      00000FB2           4018
TMR3MD                            CONSTANT      00000002              2
TMR3ON                            CONSTANT      00000000              0
TO                                CONSTANT      00000003              3
TOS                               CONSTANT      00000FFD           4093
TOSH                              CONSTANT      00000FFE           4094
TOSL                              CONSTANT      00000FFD           4093
TOSU                              CONSTANT      00000FFF           4095
TRIGEN                            CONSTANT      00000000              0
TRIGSEL                           CONSTANT      00000007              7
TRISA                             CONSTANT      00000F92           3986
gpasm-1.5.2 #1325 (Feb 10 2026) dist/firmware   02/11/26  23:18:33          PAGE 25


SYMBOL TABLE
  LABEL                              TYPE        VALUE         VALUE          VALUE
                                                 (hex)         (dec)          (text)

TRISA0                            CONSTANT      00000000              0
TRISA1                            CONSTANT      00000001              1
TRISA2                            CONSTANT      00000002              2
TRISA3                            CONSTANT      00000003              3
TRISA4                            CONSTANT      00000004              4
TRISA5                            CONSTANT      00000005              5
TRISA6                            CONSTANT      00000006              6
TRISA7                            CONSTANT      00000007              7
TRISB                             CONSTANT      00000F93           3987
TRISB0                            CONSTANT      00000000              0
TRISB1                            CONSTANT      00000001              1
TRISB2                            CONSTANT      00000002              2
TRISB3                            CONSTANT      00000003              3
TRISB4                            CONSTANT      00000004              4
TRISB5                            CONSTANT      00000005              5
TRISB6                            CONSTANT      00000006              6
TRISB7                            CONSTANT      00000007              7
TRISC                             CONSTANT      00000F94           3988
TRISC0                            CONSTANT      00000000              0
TRISC1                            CONSTANT      00000001              1
TRISC2                            CONSTANT      00000002              2
TRISC4                            CONSTANT      00000004              4
TRISC5                            CONSTANT      00000005              5
TRISC6                            CONSTANT      00000006              6
TRISC7                            CONSTANT      00000007              7
TRISD                             CONSTANT      00000F95           3989
TRISD0                            CONSTANT      00000000              0
TRISD1                            CONSTANT      00000001              1
TRISD2                            CONSTANT      00000002              2
TRISD3                            CONSTANT      00000003              3
TRISD4                            CONSTANT      00000004              4
TRISD5                            CONSTANT      00000005              5
TRISD6                            CONSTANT      00000006              6
TRISD7                            CONSTANT      00000007              7
TRISE                             CONSTANT      00000F96           3990
TRISE0                            CONSTANT      00000000              0
TRISE1                            CONSTANT      00000001              1
TRISE2                            CONSTANT      00000002              2
TRMT                              CONSTANT      00000001              1
TRNIE                             CONSTANT      00000003              3
TRNIF                             CONSTANT      00000003              3
TSEN                              CONSTANT      00000003              3
TSRNG                             CONSTANT      00000002              2
TUN0                              CONSTANT      00000000              0
TUN1                              CONSTANT      00000001              1
TUN2                              CONSTANT      00000002              2
TUN3                              CONSTANT      00000003              3
TUN4                              CONSTANT      00000004              4
TUN5                              CONSTANT      00000005              5
TUN6                              CONSTANT      00000006              6
TX                                CONSTANT      00000006              6
TX1IE                             CONSTANT      00000004              4
gpasm-1.5.2 #1325 (Feb 10 2026) dist/firmware   02/11/26  23:18:33          PAGE 26


SYMBOL TABLE
  LABEL                              TYPE        VALUE         VALUE          VALUE
                                                 (hex)         (dec)          (text)

TX1IF                             CONSTANT      00000004              4
TX1IP                             CONSTANT      00000004              4
TX9                               CONSTANT      00000006              6
TX9D                              CONSTANT      00000000              0
TXCKP                             CONSTANT      00000004              4
TXEN                              CONSTANT      00000005              5
TXIE                              CONSTANT      00000004              4
TXIF                              CONSTANT      00000004              4
TXIP                              CONSTANT      00000004              4
TXREG                             CONSTANT      00000FAD           4013
TXREG1                            CONSTANT      00000FAD           4013
TXSTA                             CONSTANT      00000FAC           4012
TXSTA1                            CONSTANT      00000FAC           4012
UA                                CONSTANT      00000001              1
UADDR                             CONSTANT      00000F63           3939
UART1MD                           CONSTANT      00000006              6
UARTMD                            CONSTANT      00000006              6
UCFG                              CONSTANT      00000F62           3938
UCON                              CONSTANT      00000F60           3936
UEIE                              CONSTANT      00000F66           3942
UEIR                              CONSTANT      00000F67           3943
UEP0                              CONSTANT      00000F6A           3946
UEP1                              CONSTANT      00000F6B           3947
UEP2                              CONSTANT      00000F6C           3948
UEP3                              CONSTANT      00000F6D           3949
UEP4                              CONSTANT      00000F6E           3950
UEP5                              CONSTANT      00000F6F           3951
UEP6                              CONSTANT      00000F70           3952
UEP7                              CONSTANT      00000F71           3953
UEP8                              CONSTANT      00000F72           3954
UEP9                              CONSTANT      00000F73           3955
UEP10                             CONSTANT      00000F74           3956
UEP11                             CONSTANT      00000F75           3957
UEP12                             CONSTANT      00000F76           3958
UEP13                             CONSTANT      00000F77           3959
UEP14                             CONSTANT      00000F78           3960
UEP15                             CONSTANT      00000F79           3961
UERRIE                            CONSTANT      00000001              1
UERRIF                            CONSTANT      00000001              1
UFRM                              CONSTANT      00000F68           3944
UFRMH                             CONSTANT      00000F69           3945
UFRML                             CONSTANT      00000F68           3944
UIE                               CONSTANT      00000F64           3940
UIR                               CONSTANT      00000F65           3941
UOEMON                            CONSTANT      00000006              6
UPUEN                             CONSTANT      00000004              4
URSTIE                            CONSTANT      00000000              0
URSTIF                            CONSTANT      00000000              0
USBEN                             CONSTANT      00000003              3
USBIE                             CONSTANT      00000002              2
USBIF                             CONSTANT      00000002              2
USBIP                             CONSTANT      00000002              2
gpasm-1.5.2 #1325 (Feb 10 2026) dist/firmware   02/11/26  23:18:33          PAGE 27


SYMBOL TABLE
  LABEL                              TYPE        VALUE         VALUE          VALUE
                                                 (hex)         (dec)          (text)

USBMD                             CONSTANT      00000005              5
USTAT                             CONSTANT      00000F61           3937
UTEYE                             CONSTANT      00000007              7
UTRDIS                            CONSTANT      00000003              3
VDIRMAG                           CONSTANT      00000007              7
VREFCON0                          CONSTANT      00000F7D           3965
VREFCON1                          CONSTANT      00000F7C           3964
VREFCON2                          CONSTANT      00000F7B           3963
VREFM                             CONSTANT      00000002              2
VREFP                             CONSTANT      00000003              3
VREGCON                           CONSTANT      00000F5A           3930
W                                 CONSTANT      00000000              0
WCOL                              CONSTANT      00000007              7
WDTCON                            CONSTANT      00000FD1           4049
WPUB                              CONSTANT      00000F85           3973
WPUB0                             CONSTANT      00000000              0
WPUB1                             CONSTANT      00000001              1
WPUB2                             CONSTANT      00000002              2
WPUB3                             CONSTANT      00000003              3
WPUB4                             CONSTANT      00000004              4
WPUB5                             CONSTANT      00000005              5
WPUB6                             CONSTANT      00000006              6
WPUB7                             CONSTANT      00000007              7
WPUE3                             CONSTANT      00000007              7
WR                                CONSTANT      00000001              1
WREG                              CONSTANT      00000FE8           4072
WREN                              CONSTANT      00000002              2
WRERR                             CONSTANT      00000003              3
WUE                               CONSTANT      00000001              1
Z                                 CONSTANT      00000002              2
_BOREN_NOSLP_2L                   CONSTANT      000000FD            253
_BOREN_OFF_2L                     CONSTANT      000000F9            249
_BOREN_ON_2L                      CONSTANT      000000FB            251
_BOREN_SBORDIS_2L                 CONSTANT      000000FF            255
_BORV_190_2L                      CONSTANT      000000FF            255
_BORV_220_2L                      CONSTANT      000000F7            247
_BORV_250_2L                      CONSTANT      000000EF            239
_BORV_285_2L                      CONSTANT      000000E7            231
_CCP2MX_RB3_3H                    CONSTANT      000000FE            254
_CCP2MX_RC1_3H                    CONSTANT      000000FF            255
_CFGPLLEN_OFF_1L                  CONSTANT      000000FD            253
_CFGPLLEN_ON_1L                   CONSTANT      000000FF            255
_CONFIG1H                         CONSTANT      00300001        3145729
_CONFIG1L                         CONSTANT      00300000        3145728
_CONFIG2H                         CONSTANT      00300003        3145731
_CONFIG2L                         CONSTANT      00300002        3145730
_CONFIG3H                         CONSTANT      00300005        3145733
_CONFIG4L                         CONSTANT      00300006        3145734
_CONFIG5H                         CONSTANT      00300009        3145737
_CONFIG5L                         CONSTANT      00300008        3145736
_CONFIG6H                         CONSTANT      0030000B        3145739
_CONFIG6L                         CONSTANT      0030000A        3145738
gpasm-1.5.2 #1325 (Feb 10 2026) dist/firmware   02/11/26  23:18:33          PAGE 28


SYMBOL TABLE
  LABEL                              TYPE        VALUE         VALUE          VALUE
                                                 (hex)         (dec)          (text)

_CONFIG7H                         CONSTANT      0030000D        3145741
_CONFIG7L                         CONSTANT      0030000C        3145740
_CP0_OFF_5L                       CONSTANT      000000FF            255
_CP0_ON_5L                        CONSTANT      000000FE            254
_CP1_OFF_5L                       CONSTANT      000000FF            255
_CP1_ON_5L                        CONSTANT      000000FD            253
_CP2_OFF_5L                       CONSTANT      000000FF            255
_CP2_ON_5L                        CONSTANT      000000FB            251
_CP3_OFF_5L                       CONSTANT      000000FF            255
_CP3_ON_5L                        CONSTANT      000000F7            247
_CPB_OFF_5H                       CONSTANT      000000FF            255
_CPB_ON_5H                        CONSTANT      000000BF            191
_CPD_OFF_5H                       CONSTANT      000000FF            255
_CPD_ON_5H                        CONSTANT      0000007F            127
_CPUDIV_CLKDIV2_1L                CONSTANT      000000EF            239
_CPUDIV_CLKDIV3_1L                CONSTANT      000000F7            247
_CPUDIV_CLKDIV6_1L                CONSTANT      000000FF            255
_CPUDIV_NOCLKDIV_1L               CONSTANT      000000E7            231
_DEBUG_OFF_4L                     CONSTANT      000000FF            255
_DEBUG_ON_4L                      CONSTANT      0000007F            127
_DEVID1                           CONSTANT      003FFFFE        4194302
_DEVID2                           CONSTANT      003FFFFF        4194303
_EBTR0_OFF_7L                     CONSTANT      000000FF            255
_EBTR0_ON_7L                      CONSTANT      000000FE            254
_EBTR1_OFF_7L                     CONSTANT      000000FF            255
_EBTR1_ON_7L                      CONSTANT      000000FD            253
_EBTR2_OFF_7L                     CONSTANT      000000FF            255
_EBTR2_ON_7L                      CONSTANT      000000FB            251
_EBTR3_OFF_7L                     CONSTANT      000000FF            255
_EBTR3_ON_7L                      CONSTANT      000000F7            247
_EBTRB_OFF_7H                     CONSTANT      000000FF            255
_EBTRB_ON_7H                      CONSTANT      000000BF            191
_FCMEN_OFF_1H                     CONSTANT      000000BF            191
_FCMEN_ON_1H                      CONSTANT      000000FF            255
_FOSC_ECHCLKO_1H                  CONSTANT      000000F4            244
_FOSC_ECHIO_1H                    CONSTANT      000000F5            245
_FOSC_ECLCLKO_1H                  CONSTANT      000000FC            252
_FOSC_ECLIO_1H                    CONSTANT      000000FD            253
_FOSC_ECMCLKO_1H                  CONSTANT      000000FA            250
_FOSC_ECMIO_1H                    CONSTANT      000000FB            251
_FOSC_HSH_1H                      CONSTANT      000000F2            242
_FOSC_HSM_1H                      CONSTANT      000000F3            243
_FOSC_INTOSCCLKO_1H               CONSTANT      000000F9            249
_FOSC_INTOSCIO_1H                 CONSTANT      000000F8            248
_FOSC_LP_1H                       CONSTANT      000000F0            240
_FOSC_RCCLKO_1H                   CONSTANT      000000F6            246
_FOSC_RCIO_1H                     CONSTANT      000000F7            247
_FOSC_XT_1H                       CONSTANT      000000F1            241
_ICPRT_OFF_4L                     CONSTANT      000000DF            223
_ICPRT_ON_4L                      CONSTANT      000000FF            255
_IDLOC0                           CONSTANT      00200000        2097152
_IDLOC1                           CONSTANT      00200001        2097153
gpasm-1.5.2 #1325 (Feb 10 2026) dist/firmware   02/11/26  23:18:33          PAGE 29


SYMBOL TABLE
  LABEL                              TYPE        VALUE         VALUE          VALUE
                                                 (hex)         (dec)          (text)

_IDLOC2                           CONSTANT      00200002        2097154
_IDLOC3                           CONSTANT      00200003        2097155
_IDLOC4                           CONSTANT      00200004        2097156
_IDLOC5                           CONSTANT      00200005        2097157
_IDLOC6                           CONSTANT      00200006        2097158
_IDLOC7                           CONSTANT      00200007        2097159
_IESO_OFF_1H                      CONSTANT      0000007F            127
_IESO_ON_1H                       CONSTANT      000000FF            255
_LS48MHZ_SYS24X4_1L               CONSTANT      000000DF            223
_LS48MHZ_SYS48X8_1L               CONSTANT      000000FF            255
_LVP_OFF_4L                       CONSTANT      000000FB            251
_LVP_ON_4L                        CONSTANT      000000FF            255
_MCLRE_OFF_3H                     CONSTANT      0000007F            127
_MCLRE_ON_3H                      CONSTANT      000000FF            255
_PBADEN_OFF_3H                    CONSTANT      000000FD            253
_PBADEN_ON_3H                     CONSTANT      000000FF            255
_PCLKEN_OFF_1H                    CONSTANT      000000DF            223
_PCLKEN_ON_1H                     CONSTANT      000000FF            255
_PLLSEL_PLL3X_1L                  CONSTANT      000000FF            255
_PLLSEL_PLL4X_1L                  CONSTANT      000000FE            254
_SDOMX_RB3_3H                     CONSTANT      000000FF            255
_SDOMX_RC7_3H                     CONSTANT      000000BF            191
_STVREN_OFF_4L                    CONSTANT      000000FE            254
_STVREN_ON_4L                     CONSTANT      000000FF            255
_T3CMX_RB5_3H                     CONSTANT      000000EF            239
_T3CMX_RC0_3H                     CONSTANT      000000FF            255
_WDTEN_NOSLP_2H                   CONSTANT      000000FD            253
_WDTEN_OFF_2H                     CONSTANT      000000FC            252
_WDTEN_ON_2H                      CONSTANT      000000FF            255
_WDTEN_SWON_2H                    CONSTANT      000000FE            254
_WDTPS_1_2H                       CONSTANT      000000C3            195
_WDTPS_2_2H                       CONSTANT      000000C7            199
_WDTPS_4_2H                       CONSTANT      000000CB            203
_WDTPS_8_2H                       CONSTANT      000000CF            207
_WDTPS_16_2H                      CONSTANT      000000D3            211
_WDTPS_32_2H                      CONSTANT      000000D7            215
_WDTPS_64_2H                      CONSTANT      000000DB            219
_WDTPS_128_2H                     CONSTANT      000000DF            223
_WDTPS_256_2H                     CONSTANT      000000E3            227
_WDTPS_512_2H                     CONSTANT      000000E7            231
_WDTPS_1024_2H                    CONSTANT      000000EB            235
_WDTPS_2048_2H                    CONSTANT      000000EF            239
_WDTPS_4096_2H                    CONSTANT      000000F3            243
_WDTPS_8192_2H                    CONSTANT      000000F7            247
_WDTPS_16384_2H                   CONSTANT      000000FB            251
_WDTPS_32768_2H                   CONSTANT      000000FF            255
_WRT0_OFF_6L                      CONSTANT      000000FF            255
_WRT0_ON_6L                       CONSTANT      000000FE            254
_WRT1_OFF_6L                      CONSTANT      000000FF            255
_WRT1_ON_6L                       CONSTANT      000000FD            253
_WRT2_OFF_6L                      CONSTANT      000000FF            255
_WRT2_ON_6L                       CONSTANT      000000FB            251
gpasm-1.5.2 #1325 (Feb 10 2026) dist/firmware   02/11/26  23:18:33          PAGE 30


SYMBOL TABLE
  LABEL                              TYPE        VALUE         VALUE          VALUE
                                                 (hex)         (dec)          (text)

_WRT3_OFF_6L                      CONSTANT      000000FF            255
_WRT3_ON_6L                       CONSTANT      000000F7            247
_WRTB_OFF_6H                      CONSTANT      000000FF            255
_WRTB_ON_6H                       CONSTANT      000000BF            191
_WRTC_OFF_6H                      CONSTANT      000000FF            255
_WRTC_ON_6H                       CONSTANT      000000DF            223
_WRTD_OFF_6H                      CONSTANT      000000FF            255
_WRTD_ON_6H                       CONSTANT      0000007F            127
_XINST_OFF_4L                     CONSTANT      000000BF            191
_XINST_ON_4L                      CONSTANT      000000FF            255
__16_BIT                          CONSTANT      00000001              1
__18F45K50                        CONSTANT      00000001              1
__ACC_RAM_LOW_END                 CONSTANT      0000005F             95
__ACC_RAM_LOW_START               CONSTANT      00000000              0
__ACTIVE_BANK_ADDR                VARIABLE      FFFFFFFF             -1
__ASSUMED_BANK_ADDR               VARIABLE      FFFFFFFF             -1
__BANK_0                          CONSTANT      00000000              0
__BANK_1                          CONSTANT      00000100            256
__BANK_2                          CONSTANT      00000200            512
__BANK_3                          CONSTANT      00000300            768
__BANK_4                          CONSTANT      00000400           1024
__BANK_5                          CONSTANT      00000500           1280
__BANK_6                          CONSTANT      00000600           1536
__BANK_7                          CONSTANT      00000700           1792
__BANK_8                          CONSTANT      00000800           2048
__BANK_9                          CONSTANT      00000900           2304
__BANK_10                         CONSTANT      00000A00           2560
__BANK_11                         CONSTANT      00000B00           2816
__BANK_12                         CONSTANT      00000C00           3072
__BANK_13                         CONSTANT      00000D00           3328
__BANK_14                         CONSTANT      00000E00           3584
__BANK_15                         CONSTANT      00000F00           3840
__BANK_BITS                       CONSTANT      00000F00           3840
__BANK_FIRST                      CONSTANT      00000000              0
__BANK_INV                        CONSTANT      FFFFFFFF             -1
__BANK_LAST                       CONSTANT      00000F00           3840
__BANK_MASK                       CONSTANT      000000FF            255
__BANK_SHIFT                      CONSTANT      00000008              8
__BANK_SIZE                       CONSTANT      00000100            256
__CODE_END                        CONSTANT      00007FFF          32767
__CODE_START                      CONSTANT      00000000              0
__COMMON_RAM_END                  CONSTANT      0000005F             95
__COMMON_RAM_START                CONSTANT      00000000              0
__CONFIG_END                      CONSTANT      0030000D        3145741
__CONFIG_START                    CONSTANT      00300000        3145728
__EEPROM_END                      CONSTANT      00F000FF       15728895
__EEPROM_START                    CONSTANT      00F00000       15728640
__EXTENDED                        CONSTANT      00000001              1
__GPUTILS_SVN_VERSION             CONSTANT      0000052D           1325
__GPUTILS_VERSION_MAJOR           CONSTANT      00000001              1
__GPUTILS_VERSION_MICRO           CONSTANT      00000002              2
__GPUTILS_VERSION_MINOR           CONSTANT      00000005              5
gpasm-1.5.2 #1325 (Feb 10 2026) dist/firmware   02/11/26  23:18:33          PAGE 31


SYMBOL TABLE
  LABEL                              TYPE        VALUE         VALUE          VALUE
                                                 (hex)         (dec)          (text)

__IDLOCS_END                      CONSTANT      00200007        2097159
__IDLOCS_START                    CONSTANT      00200000        2097152
__NUM_BANKS                       CONSTANT      00000010             16
__VECTOR_INT_HIGH                 CONSTANT      00000008              8
__VECTOR_INT_LOW                  CONSTANT      00000018             24
__VECTOR_RESET                    CONSTANT      00000000              0
__WHILE_LOOP_COUNT_MAX            CONSTANT      000000FF            255
_nLPBOR_OFF_2L                    CONSTANT      000000FF            255
_nLPBOR_ON_2L                     CONSTANT      000000BF            191
_nPWRTEN_OFF_2L                   CONSTANT      000000FF            255
_nPWRTEN_ON_2L                    CONSTANT      000000FE            254
_stack_base                       CONSTANT      00000060             96
comp_false_0                      ADDRESS       0000001E             30
comp_false_2                      ADDRESS       0000003C             60
comp_false_4                      ADDRESS       0000006C            108
comp_false_6                      ADDRESS       0000008E            142
comp_false_8                      ADDRESS       000000B4            180
comp_false_10                     ADDRESS       000000CC            204
comp_false_12                     ADDRESS       000000EE            238
comp_false_14                     ADDRESS       0000013C            316
comp_false_16                     ADDRESS       00000158            344
comp_false_18                     ADDRESS       0000017A            378
comp_false_20                     ADDRESS       0000019C            412
comp_false_22                     ADDRESS       000001B6            438
comp_false_24                     ADDRESS       000001DA            474
comp_false_26                     ADDRESS       000001FE            510
delay_ms                          ADDRESS       0000000C             12
delay_ms.count                    CONSTANT      00000074            116
delay_ms.ms                       CONSTANT      00000075            117
init_hardware                     ADDRESS       00000004              4
is_button_pressed                 ADDRESS       00000058             88
main                              ADDRESS       0000011A            282
main.mode                         CONSTANT      00000061             97
soft_pwm                          ADDRESS       000000A2            162
soft_pwm.duration                 CONSTANT      0000006E            110
soft_pwm.duty_cycle               CONSTANT      0000006F            111
tmp.0                             CONSTANT      00000076            118
tmp.1                             CONSTANT      00000077            119
tmp.4                             CONSTANT      0000006E            110
tmp.5                             CONSTANT      0000006F            111
tmp.6                             CONSTANT      00000070            112
tmp.7                             CONSTANT      00000071            113
tmp.8                             CONSTANT      00000072            114
tmp.9                             CONSTANT      00000073            115
tmp.10                            CONSTANT      00000070            112
tmp.12                            CONSTANT      00000071            113
tmp.14                            CONSTANT      00000064            100
tmp.15                            CONSTANT      00000065            101
tmp.17                            CONSTANT      00000066            102
tmp.18                            CONSTANT      00000067            103
tmp.19                            CONSTANT      00000068            104
tmp.20                            CONSTANT      00000069            105
gpasm-1.5.2 #1325 (Feb 10 2026) dist/firmware   02/11/26  23:18:33          PAGE 32


SYMBOL TABLE
  LABEL                              TYPE        VALUE         VALUE          VALUE
                                                 (hex)         (dec)          (text)

tmp.21                            CONSTANT      0000006A            106
tmp.22                            CONSTANT      0000006B            107
tmp.23                            CONSTANT      0000006C            108


MEMORY USAGE MAP ('X' = Used,  '-' = Unused)

0000 : XXXXXXXXXXXXXXXX XXXXXXXXXXXXXXXX XXXXXXXXXXXXXXXX XXXXXXXXXXXXXXXX
0040 : XXXXXXXXXXXXXXXX XXXXXXXXXXXXXXXX XXXXXXXXXXXXXXXX XXXXXXXXXXXXXXXX
0080 : XXXXXXXXXXXXXXXX XXXXXXXXXXXXXXXX XXXXXXXXXXXXXXXX XXXXXXXXXXXXXXXX
00C0 : XXXXXXXXXXXXXXXX XXXXXXXXXXXXXXXX XXXXXXXXXXXXXXXX XXXXXXXXXXXXXXXX
0100 : XXXXXXXXXXXXXXXX XXXXXXXXXXXXXXXX XXXXXXXXXXXXXXXX XXXXXXXXXXXXXXXX
0140 : XXXXXXXXXXXXXXXX XXXXXXXXXXXXXXXX XXXXXXXXXXXXXXXX XXXXXXXXXXXXXXXX
0180 : XXXXXXXXXXXXXXXX XXXXXXXXXXXXXXXX XXXXXXXXXXXXXXXX XXXXXXXXXXXXXXXX
01C0 : XXXXXXXXXXXXXXXX XXXXXXXXXXXXXXXX XXXXXXXXXXXXXXXX XXXXXXXXXXXXXXXX
0200 : XXXXXXXXXXXXXXXX XXXXXXXXXXXXXXXX ---------------- ----------------

All other memory blocks unused.

Program Memory Bytes Used:   544
Program Memory Bytes Free: 32224


Errors   :     0
Warnings :     0 reported,     0 suppressed
Messages :     2 reported,     0 suppressed

